target datalayout = "e-m:e-p270:32:32-p271:32:32-p272:64:64-i64:64-i128:128-f80:128-n8:16:32:64-S128"
target triple = "x86_64-pc-linux-gnu"

%"class.llvm::APInt" = type <{ %union.anon, i32, [4 x i8] }>
%union.anon = type { i64 }

; Function Attrs: mustprogress nounwind uwtable
define linkonce_odr hidden noundef zeroext i1 @_ZNK4llvm5APInt3uleERKS0_(ptr noundef nonnull align 8 dereferenceable(12) %0, ptr noundef nonnull align 8 dereferenceable(12) %1) #0 comdat align 2 {
  %3 = alloca ptr, align 8
  %4 = alloca ptr, align 8
  store ptr %0, ptr %3, align 8
  store ptr %1, ptr %4, align 8
  %5 = load ptr, ptr %3, align 8
  %6 = load ptr, ptr %4, align 8
  %7 = call noundef i32 @_ZNK4llvm5APInt7compareERKS0_(ptr noundef nonnull align 8 dereferenceable(12) %5, ptr noundef nonnull align 8 dereferenceable(12) %6) #14
  %8 = icmp sle i32 %7, 0
  ret i1 %8
}

; Function Attrs: mustprogress nounwind uwtable
define linkonce_odr hidden noundef zeroext i1 @_ZNK4llvm5APInt3ugtERKS0_(ptr noundef nonnull align 8 dereferenceable(12) %0, ptr noundef nonnull align 8 dereferenceable(12) %1) #0 comdat align 2 {
  %3 = alloca ptr, align 8
  %4 = alloca ptr, align 8
  store ptr %0, ptr %3, align 8
  store ptr %1, ptr %4, align 8
  %5 = load ptr, ptr %3, align 8
  %6 = load ptr, ptr %4, align 8
  %7 = call noundef zeroext i1 @_ZNK4llvm5APInt3uleERKS0_(ptr noundef nonnull align 8 dereferenceable(12) %5, ptr noundef nonnull align 8 dereferenceable(12) %6)
  %8 = xor i1 %7, true
  ret i1 %8
}

; Function Attrs: mustprogress nounwind uwtable
define dso_local noundef i32 @_ZNK4llvm18FunctionComparator10cmpNumbersEmm(ptr noundef nonnull align 8 dereferenceable(72) %0, i64 noundef %1, i64 noundef %2) #0 align 2 {
  %4 = alloca i32, align 4
  %5 = alloca ptr, align 8
  %6 = alloca i64, align 8
  %7 = alloca i64, align 8
  store ptr %0, ptr %5, align 8
  store i64 %1, ptr %6, align 8
  store i64 %2, ptr %7, align 8
  %8 = load i64, ptr %6, align 8
  %9 = load i64, ptr %7, align 8
  %10 = icmp ult i64 %8, %9
  br i1 %10, label %11, label %12

11:                                               ; preds = %3
  store i32 -1, ptr %4, align 4
  br label %18

12:                                               ; preds = %3
  %13 = load i64, ptr %6, align 8
  %14 = load i64, ptr %7, align 8
  %15 = icmp ugt i64 %13, %14
  br i1 %15, label %16, label %17

16:                                               ; preds = %12
  store i32 1, ptr %4, align 4
  br label %18

17:                                               ; preds = %12
  store i32 0, ptr %4, align 4
  br label %18

18:                                               ; preds = %17, %16, %11
  %19 = load i32, ptr %4, align 4
  ret i32 %19
}

; Function Attrs: mustprogress nounwind uwtable
define linkonce_odr hidden noundef i32 @_ZNK4llvm5APInt11getBitWidthEv(ptr noundef nonnull align 8 dereferenceable(12) %0) #0 comdat align 2 {
  %2 = alloca ptr, align 8
  store ptr %0, ptr %2, align 8
  %3 = load ptr, ptr %2, align 8
  %4 = getelementptr inbounds nuw %"class.llvm::APInt", ptr %3, i32 0, i32 1
  %5 = load i32, ptr %4, align 8
  ret i32 %5
}

; Function Attrs: mustprogress nounwind uwtable
define dso_local noundef i32 @_ZNK4llvm18FunctionComparator9cmpAPIntsERKNS_5APIntES3_(ptr noundef nonnull align 8 dereferenceable(72) %0, ptr noundef nonnull align 8 dereferenceable(12) %1, ptr noundef nonnull align 8 dereferenceable(12) %2) #0 align 2 {
  %4 = alloca i32, align 4
  %5 = alloca ptr, align 8
  %6 = alloca ptr, align 8
  %7 = alloca ptr, align 8
  %8 = alloca i32, align 4
  store ptr %0, ptr %5, align 8
  store ptr %1, ptr %6, align 8
  store ptr %2, ptr %7, align 8
  %9 = load ptr, ptr %5, align 8
  %10 = load ptr, ptr %6, align 8
  %11 = call noundef i32 @_ZNK4llvm5APInt11getBitWidthEv(ptr noundef nonnull align 8 dereferenceable(12) %10)
  %12 = zext i32 %11 to i64
  %13 = load ptr, ptr %7, align 8
  %14 = call noundef i32 @_ZNK4llvm5APInt11getBitWidthEv(ptr noundef nonnull align 8 dereferenceable(12) %13)
  %15 = zext i32 %14 to i64
  %16 = call noundef i32 @_ZNK4llvm18FunctionComparator10cmpNumbersEmm(ptr noundef nonnull align 8 dereferenceable(72) %9, i64 noundef %12, i64 noundef %15)
  store i32 %16, ptr %8, align 4
  %17 = load i32, ptr %8, align 4
  %18 = icmp ne i32 %17, 0
  br i1 %18, label %19, label %21

19:                                               ; preds = %3
  %20 = load i32, ptr %8, align 4
  store i32 %20, ptr %4, align 4
  br label %32

21:                                               ; preds = %3
  %22 = load ptr, ptr %6, align 8
  %23 = load ptr, ptr %7, align 8
  %24 = call noundef zeroext i1 @_ZNK4llvm5APInt3ugtERKS0_(ptr noundef nonnull align 8 dereferenceable(12) %22, ptr noundef nonnull align 8 dereferenceable(12) %23)
  br i1 %24, label %25, label %26

25:                                               ; preds = %21
  store i32 1, ptr %4, align 4
  br label %32

26:                                               ; preds = %21
  %27 = load ptr, ptr %7, align 8
  %28 = load ptr, ptr %6, align 8
  %29 = call noundef zeroext i1 @_ZNK4llvm5APInt3ugtERKS0_(ptr noundef nonnull align 8 dereferenceable(12) %27, ptr noundef nonnull align 8 dereferenceable(12) %28)
  br i1 %29, label %30, label %31

30:                                               ; preds = %26
  store i32 -1, ptr %4, align 4
  br label %32

31:                                               ; preds = %26
  store i32 0, ptr %4, align 4
  br label %32

32:                                               ; preds = %31, %30, %25, %19
  %33 = load i32, ptr %4, align 4
  ret i32 %33
}