; Function Attrs: mustprogress nofree nounwind willreturn memory(read) uwtable
define dso_local noundef range(i32 -1, 2) i32 @_ZNK4llvm18FunctionComparator9cmpAPIntsERKNS_5APIntES3_(ptr nonnull readnone align 8 captures(none) %0, ptr noundef nonnull readonly align 8 dereferenceable(12) %1, ptr noundef nonnull readonly align 8 dereferenceable(12) %2) local_unnamed_addr #1 align 2 {
  %4 = getelementptr inbounds nuw i8, ptr %1, i64 8
  %5 = load i32, ptr %4, align 8
  %6 = zext i32 %5 to i64
  %7 = getelementptr inbounds nuw i8, ptr %2, i64 8
  %8 = load i32, ptr %7, align 8
  %9 = zext i32 %8 to i64
  %.0.i = tail call noundef range(i32 -1, 2) i32 @llvm.ucmp.i32.i64(i64 %6, i64 %9)
  %.not = icmp eq i32 %5, %8
  br i1 %.not, label %10, label %16

10:                                               ; preds = %3
  %11 = tail call noundef i32 @_ZNK4llvm5APInt7compareERKS0_(ptr noundef nonnull align 8 dereferenceable(12) %1, ptr noundef nonnull align 8 dereferenceable(12) %2) #17
  %12 = icmp sgt i32 %11, 0
  br i1 %12, label %16, label %13

13:                                               ; preds = %10
  %14 = tail call noundef i32 @_ZNK4llvm5APInt7compareERKS0_(ptr noundef nonnull align 8 dereferenceable(12) %2, ptr noundef nonnull align 8 dereferenceable(12) %1) #17
  %15 = icmp sgt i32 %14, 0
  %. = sext i1 %15 to i32
  br label %16

16:                                               ; preds = %13, %10, %3
  %.0 = phi i32 [ %.0.i, %3 ], [ 1, %10 ], [ %., %13 ]
  ret i32 %.0
}